target datalayout = "e-m:e-p270:32:32-p271:32:32-p272:64:64-i64:64-i128:128-f80:128-n8:16:32:64-S128"
target triple = "x86_64-pc-linux-gnu"

%struct.ARKodeMemRec = type { ptr, double, ptr, i32, i32, double, double, ptr, i32, double, ptr, i32, i32, ptr, ptr, i32, ptr, ptr, i32, ptr, ptr, ptr, ptr, ptr, ptr, ptr, ptr, ptr, ptr, ptr, ptr, ptr, ptr, ptr, i32, ptr, ptr, i32, ptr, i32, ptr, ptr, ptr, ptr, ptr, ptr, ptr, ptr, ptr, ptr, ptr, ptr, ptr, ptr, ptr, ptr, ptr, ptr, ptr, ptr, ptr, ptr, ptr, ptr, ptr, ptr, i32, ptr, ptr, ptr, ptr, ptr, ptr, ptr, i32, ptr, ptr, ptr, i32, ptr, ptr, ptr, ptr, ptr, ptr, ptr, i32, i32, i32, i32, double, double, double, double, double, double, double, double, double, double, i32, ptr, i64, i32, i32, i32, i32, i64, i64, i32, i64, i64, i64, i64, i64, i64, i64, double, double, double, double, double, i32, double, double, i32, i32, i32, i32, i32, i32, i32, i32, ptr, i32, ptr, ptr, ptr, ptr, i32, i32, i32 }
%struct.ARKodeLSRKStepMemRec = type { ptr, ptr, i32, i32, i32, i32, i64, i64, i32, i32, i64, i64, double, double, double, double, double, double, i64, i32, i32, i32, i32, ptr, ptr, i32 }

@.str = private unnamed_addr constant [124 x i8] c"generated/home/dtcxzyw/WorkSpace/Projects/compilers/llvm-opt-benchmark/bench/sundials/sundials/src/arkode/arkode_lsrkstep.c\00", align 1
@.str.1 = private unnamed_addr constant [49 x i8] c"Must specify at least one of fe, fi (both NULL).\00", align 1
@.str.2 = private unnamed_addr constant [19 x i8] c"y0 = NULL illegal.\00", align 1
@.str.5 = private unnamed_addr constant [27 x i8] c"arkode_mem = NULL illegal.\00", align 1
@.str.8 = private unnamed_addr constant [48 x i8] c"Unable to initialize main ARKODE infrastructure\00", align 1
@__func__.lsrkStep_ReInit_Commons = private unnamed_addr constant [24 x i8] c"lsrkStep_ReInit_Commons\00", align 1
@.str.9 = private unnamed_addr constant [35 x i8] c"Attempt to call before ARKodeInit.\00", align 1
@.str.39 = private unnamed_addr constant [33 x i8] c"Time step module memory is NULL.\00", align 1

; Function Attrs: nounwind uwtable
define i32 @lsrkStep_AccessARKODEStepMem(ptr noundef %0, ptr noundef %1, ptr noundef %2, ptr noundef %3) #0 {
  %5 = alloca i32, align 4
  %6 = alloca ptr, align 8
  %7 = alloca ptr, align 8
  %8 = alloca ptr, align 8
  %9 = alloca ptr, align 8
  store ptr %0, ptr %6, align 8, !tbaa !3
  store ptr %1, ptr %7, align 8, !tbaa !110
  store ptr %2, ptr %8, align 8, !tbaa !112
  store ptr %3, ptr %9, align 8, !tbaa !114
  %10 = load ptr, ptr %6, align 8, !tbaa !3
  %11 = icmp eq ptr %10, null
  br i1 %11, label %12, label %14

12:                                               ; preds = %4
  %13 = load ptr, ptr %7, align 8, !tbaa !110
  call void (ptr, i32, i32, ptr, ptr, ptr, ...) @arkProcessError(ptr noundef null, i32 noundef -21, i32 noundef 2131, ptr noundef %13, ptr noundef @.str, ptr noundef @.str.5)
  store i32 -21, ptr %5, align 4
  br label %32

14:                                               ; preds = %4
  %15 = load ptr, ptr %6, align 8, !tbaa !3
  %16 = load ptr, ptr %8, align 8, !tbaa !112
  store ptr %15, ptr %16, align 8, !tbaa !13
  %17 = load ptr, ptr %8, align 8, !tbaa !112
  %18 = load ptr, ptr %17, align 8, !tbaa !13
  %19 = getelementptr inbounds nuw %struct.ARKodeMemRec, ptr %18, i32 0, i32 19
  %20 = load ptr, ptr %19, align 8, !tbaa !35
  %21 = icmp eq ptr %20, null
  br i1 %21, label %22, label %26

22:                                               ; preds = %14
  %23 = load ptr, ptr %8, align 8, !tbaa !112
  %24 = load ptr, ptr %23, align 8, !tbaa !13
  %25 = load ptr, ptr %7, align 8, !tbaa !110
  call void (ptr, i32, i32, ptr, ptr, ptr, ...) @arkProcessError(ptr noundef %24, i32 noundef -21, i32 noundef 2140, ptr noundef %25, ptr noundef @.str, ptr noundef @.str.39)
  store i32 -21, ptr %5, align 4
  br label %32

26:                                               ; preds = %14
  %27 = load ptr, ptr %8, align 8, !tbaa !112
  %28 = load ptr, ptr %27, align 8, !tbaa !13
  %29 = getelementptr inbounds nuw %struct.ARKodeMemRec, ptr %28, i32 0, i32 19
  %30 = load ptr, ptr %29, align 8, !tbaa !35
  %31 = load ptr, ptr %9, align 8, !tbaa !114
  store ptr %30, ptr %31, align 8, !tbaa !17
  store i32 0, ptr %5, align 4
  br label %32

32:                                               ; preds = %26, %22, %12
  %33 = load i32, ptr %5, align 4
  ret i32 %33
}

; Function Attrs: nounwind uwtable
define i32 @lsrkStep_ReInit_Commons(ptr noundef %0, ptr noundef %1, double noundef %2, ptr noundef %3) #0 {
  %5 = alloca i32, align 4
  %6 = alloca ptr, align 8
  %7 = alloca ptr, align 8
  %8 = alloca double, align 8
  %9 = alloca ptr, align 8
  %10 = alloca ptr, align 8
  %11 = alloca ptr, align 8
  %12 = alloca i32, align 4
  %13 = alloca i32, align 4
  store ptr %0, ptr %6, align 8, !tbaa !3
  store ptr %1, ptr %7, align 8, !tbaa !3
  store double %2, ptr %8, align 8, !tbaa !7
  store ptr %3, ptr %9, align 8, !tbaa !9
  call void @llvm.lifetime.start.p0(i64 8, ptr %10) #6
  call void @llvm.lifetime.start.p0(i64 8, ptr %11) #6
  call void @llvm.lifetime.start.p0(i64 4, ptr %12) #6
  %14 = load ptr, ptr %6, align 8, !tbaa !3
  %15 = call i32 @lsrkStep_AccessARKODEStepMem(ptr noundef %14, ptr noundef @__func__.lsrkStep_ReInit_Commons, ptr noundef %10, ptr noundef %11)
  store i32 %15, ptr %12, align 4, !tbaa !15
  %16 = load i32, ptr %12, align 4, !tbaa !15
  %17 = icmp ne i32 %16, 0
  br i1 %17, label %18, label %20

18:                                               ; preds = %4
  %19 = load i32, ptr %12, align 4, !tbaa !15
  store i32 %19, ptr %5, align 4
  store i32 1, ptr %13, align 4
  br label %68

20:                                               ; preds = %4
  %21 = load ptr, ptr %10, align 8, !tbaa !13
  %22 = getelementptr inbounds nuw %struct.ARKodeMemRec, ptr %21, i32 0, i32 127
  %23 = load i32, ptr %22, align 8, !tbaa !52
  %24 = icmp eq i32 %23, 0
  br i1 %24, label %25, label %27

25:                                               ; preds = %20
  %26 = load ptr, ptr %10, align 8, !tbaa !13
  call void (ptr, i32, i32, ptr, ptr, ptr, ...) @arkProcessError(ptr noundef %26, i32 noundef -23, i32 noundef 253, ptr noundef @__func__.lsrkStep_ReInit_Commons, ptr noundef @.str, ptr noundef @.str.9)
  store i32 -23, ptr %5, align 4
  store i32 1, ptr %13, align 4
  br label %68

27:                                               ; preds = %20
  %28 = load ptr, ptr %7, align 8, !tbaa !3
  %29 = icmp eq ptr %28, null
  br i1 %29, label %30, label %32

30:                                               ; preds = %27
  %31 = load ptr, ptr %10, align 8, !tbaa !13
  call void (ptr, i32, i32, ptr, ptr, ptr, ...) @arkProcessError(ptr noundef %31, i32 noundef -22, i32 noundef 261, ptr noundef @__func__.lsrkStep_ReInit_Commons, ptr noundef @.str, ptr noundef @.str.1)
  store i32 -22, ptr %5, align 4
  store i32 1, ptr %13, align 4
  br label %68

32:                                               ; preds = %27
  %33 = load ptr, ptr %9, align 8, !tbaa !9
  %34 = icmp eq ptr %33, null
  br i1 %34, label %35, label %37

35:                                               ; preds = %32
  %36 = load ptr, ptr %10, align 8, !tbaa !13
  call void (ptr, i32, i32, ptr, ptr, ptr, ...) @arkProcessError(ptr noundef %36, i32 noundef -22, i32 noundef 269, ptr noundef @__func__.lsrkStep_ReInit_Commons, ptr noundef @.str, ptr noundef @.str.2)
  store i32 -22, ptr %5, align 4
  store i32 1, ptr %13, align 4
  br label %68

37:                                               ; preds = %32
  %38 = load ptr, ptr %7, align 8, !tbaa !3
  %39 = load ptr, ptr %11, align 8, !tbaa !17
  %40 = getelementptr inbounds nuw %struct.ARKodeLSRKStepMemRec, ptr %39, i32 0, i32 0
  store ptr %38, ptr %40, align 8, !tbaa !37
  %41 = load ptr, ptr %6, align 8, !tbaa !3
  %42 = load double, ptr %8, align 8, !tbaa !7
  %43 = load ptr, ptr %9, align 8, !tbaa !9
  %44 = call i32 @arkInit(ptr noundef %41, double noundef %42, ptr noundef %43, i32 noundef 0)
  store i32 %44, ptr %12, align 4, !tbaa !15
  %45 = load i32, ptr %12, align 4, !tbaa !15
  %46 = icmp ne i32 %45, 0
  br i1 %46, label %47, label %51

47:                                               ; preds = %37
  %48 = load ptr, ptr %10, align 8, !tbaa !13
  %49 = load i32, ptr %12, align 4, !tbaa !15
  call void (ptr, i32, i32, ptr, ptr, ptr, ...) @arkProcessError(ptr noundef %48, i32 noundef %49, i32 noundef 281, ptr noundef @__func__.lsrkStep_ReInit_Commons, ptr noundef @.str, ptr noundef @.str.8)
  %50 = load i32, ptr %12, align 4, !tbaa !15
  store i32 %50, ptr %5, align 4
  store i32 1, ptr %13, align 4
  br label %68

51:                                               ; preds = %37
  %52 = load ptr, ptr %11, align 8, !tbaa !17
  %53 = getelementptr inbounds nuw %struct.ARKodeLSRKStepMemRec, ptr %52, i32 0, i32 6
  store i64 0, ptr %53, align 8, !tbaa !42
  %54 = load ptr, ptr %11, align 8, !tbaa !17
  %55 = getelementptr inbounds nuw %struct.ARKodeLSRKStepMemRec, ptr %54, i32 0, i32 7
  store i64 0, ptr %55, align 8, !tbaa !44
  %56 = load ptr, ptr %11, align 8, !tbaa !17
  %57 = getelementptr inbounds nuw %struct.ARKodeLSRKStepMemRec, ptr %56, i32 0, i32 8
  store i32 0, ptr %57, align 8, !tbaa !43
  %58 = load ptr, ptr %11, align 8, !tbaa !17
  %59 = getelementptr inbounds nuw %struct.ARKodeLSRKStepMemRec, ptr %58, i32 0, i32 15
  store double 0.000000e+00, ptr %59, align 8, !tbaa !53
  %60 = load ptr, ptr %11, align 8, !tbaa !17
  %61 = getelementptr inbounds nuw %struct.ARKodeLSRKStepMemRec, ptr %60, i32 0, i32 16
  store double 0.000000e+00, ptr %61, align 8, !tbaa !54
  %62 = load ptr, ptr %11, align 8, !tbaa !17
  %63 = getelementptr inbounds nuw %struct.ARKodeLSRKStepMemRec, ptr %62, i32 0, i32 10
  store i64 0, ptr %63, align 8, !tbaa !46
  %64 = load ptr, ptr %11, align 8, !tbaa !17
  %65 = getelementptr inbounds nuw %struct.ARKodeLSRKStepMemRec, ptr %64, i32 0, i32 19
  store i32 1, ptr %65, align 8, !tbaa !55
  %66 = load ptr, ptr %11, align 8, !tbaa !17
  %67 = getelementptr inbounds nuw %struct.ARKodeLSRKStepMemRec, ptr %66, i32 0, i32 21
  store i32 0, ptr %67, align 8, !tbaa !56
  store i32 0, ptr %5, align 4
  store i32 1, ptr %13, align 4
  br label %68

68:                                               ; preds = %51, %47, %35, %30, %25, %18
  call void @llvm.lifetime.end.p0(i64 4, ptr %12) #6
  call void @llvm.lifetime.end.p0(i64 8, ptr %11) #6
  call void @llvm.lifetime.end.p0(i64 8, ptr %10) #6
  %69 = load i32, ptr %5, align 4
  ret i32 %69
}