; Function Attrs: nounwind uwtable
define i32 @lsrkStep_ReInit_Commons(ptr noundef %0, ptr noundef %1, double noundef %2, ptr noundef %3) local_unnamed_addr #0 {
  %5 = icmp eq ptr %0, null
  br i1 %5, label %6, label %7

6:                                                ; preds = %4
  tail call void (ptr, i32, i32, ptr, ptr, ptr, ...) @arkProcessError(ptr noundef null, i32 noundef -21, i32 noundef 2131, ptr noundef nonnull @__func__.lsrkStep_ReInit_Commons, ptr noundef nonnull @.str, ptr noundef nonnull @.str.5) #13
  br label %lsrkStep_AccessARKODEStepMem.exit.thread

7:                                                ; preds = %4
  %8 = getelementptr inbounds nuw i8, ptr %0, i64 136
  %9 = load ptr, ptr %8, align 8, !tbaa !3
  %10 = icmp eq ptr %9, null
  br i1 %10, label %11, label %lsrkStep_AccessARKODEStepMem.exit

11:                                               ; preds = %7
  tail call void (ptr, i32, i32, ptr, ptr, ptr, ...) @arkProcessError(ptr noundef nonnull %0, i32 noundef -21, i32 noundef 2140, ptr noundef nonnull @__func__.lsrkStep_ReInit_Commons, ptr noundef nonnull @.str, ptr noundef nonnull @.str.39) #13
  br label %lsrkStep_AccessARKODEStepMem.exit.thread

lsrkStep_AccessARKODEStepMem.exit:                ; preds = %7
  %12 = getelementptr inbounds nuw i8, ptr %0, i64 960
  %13 = load i32, ptr %12, align 8, !tbaa !53
  %14 = icmp eq i32 %13, 0
  br i1 %14, label %15, label %16

15:                                               ; preds = %lsrkStep_AccessARKODEStepMem.exit
  tail call void (ptr, i32, i32, ptr, ptr, ptr, ...) @arkProcessError(ptr noundef nonnull %0, i32 noundef -23, i32 noundef 253, ptr noundef nonnull @__func__.lsrkStep_ReInit_Commons, ptr noundef nonnull @.str, ptr noundef nonnull @.str.9) #13
  br label %lsrkStep_AccessARKODEStepMem.exit.thread

16:                                               ; preds = %lsrkStep_AccessARKODEStepMem.exit
  %17 = icmp eq ptr %1, null
  br i1 %17, label %18, label %19

18:                                               ; preds = %16
  tail call void (ptr, i32, i32, ptr, ptr, ptr, ...) @arkProcessError(ptr noundef nonnull %0, i32 noundef -22, i32 noundef 261, ptr noundef nonnull @__func__.lsrkStep_ReInit_Commons, ptr noundef nonnull @.str, ptr noundef nonnull @.str.1) #13
  br label %lsrkStep_AccessARKODEStepMem.exit.thread

19:                                               ; preds = %16
  %20 = icmp eq ptr %3, null
  br i1 %20, label %21, label %22

21:                                               ; preds = %19
  tail call void (ptr, i32, i32, ptr, ptr, ptr, ...) @arkProcessError(ptr noundef nonnull %0, i32 noundef -22, i32 noundef 269, ptr noundef nonnull @__func__.lsrkStep_ReInit_Commons, ptr noundef nonnull @.str, ptr noundef nonnull @.str.2) #13
  br label %lsrkStep_AccessARKODEStepMem.exit.thread

22:                                               ; preds = %19
  store ptr %1, ptr %9, align 8, !tbaa !49
  %23 = tail call i32 @arkInit(ptr noundef nonnull %0, double noundef %2, ptr noundef nonnull %3, i32 noundef 0) #13
  %.not16 = icmp eq i32 %23, 0
  br i1 %.not16, label %25, label %24

24:                                               ; preds = %22
  tail call void (ptr, i32, i32, ptr, ptr, ptr, ...) @arkProcessError(ptr noundef nonnull %0, i32 noundef %23, i32 noundef 281, ptr noundef nonnull @__func__.lsrkStep_ReInit_Commons, ptr noundef nonnull @.str, ptr noundef nonnull @.str.8) #13
  br label %lsrkStep_AccessARKODEStepMem.exit.thread

25:                                               ; preds = %22
  %26 = getelementptr inbounds nuw i8, ptr %9, i64 32
  %27 = getelementptr inbounds nuw i8, ptr %9, i64 96
  %28 = getelementptr inbounds nuw i8, ptr %9, i64 56
  store i64 0, ptr %28, align 8, !tbaa !52
  %29 = getelementptr inbounds nuw i8, ptr %9, i64 128
  tail call void @llvm.memset.p0.i64(ptr noundef nonnull align 8 dereferenceable(20) %26, i8 0, i64 20, i1 false)
  tail call void @llvm.memset.p0.i64(ptr noundef nonnull align 8 dereferenceable(16) %27, i8 0, i64 16, i1 false)
  store i32 1, ptr %29, align 8, !tbaa !54
  %30 = getelementptr inbounds nuw i8, ptr %9, i64 136
  store i32 0, ptr %30, align 8, !tbaa !55
  br label %lsrkStep_AccessARKODEStepMem.exit.thread

lsrkStep_AccessARKODEStepMem.exit.thread:         ; preds = %11, %6, %25, %24, %21, %18, %15
  %.0 = phi i32 [ -23, %15 ], [ -22, %18 ], [ -22, %21 ], [ %23, %24 ], [ 0, %25 ], [ -21, %6 ], [ -21, %11 ]
  ret i32 %.0
}